; Function Attrs: mustprogress uwtable
define hidden noundef zeroext i1 @_ZNK4cvc58internal16DTypeConstructor18computeWellFoundedERSt6vectorINS0_8TypeNodeESaIS3_EE(ptr nocapture noundef nonnull readonly align 8 dereferenceable(264) %this, ptr noundef nonnull align 8 dereferenceable(24) %processing) local_unnamed_addr #3 align 2 personality ptr @__gxx_personality_v0 {
entry:
  %t = alloca %"class.cvc5::internal::TypeNode", align 8
  %d_args.i = getelementptr inbounds i8, ptr %this, i64 80
  %_M_finish.i.i = getelementptr inbounds i8, ptr %this, i64 88
  %0 = load ptr, ptr %_M_finish.i.i, align 8
  %1 = load ptr, ptr %d_args.i, align 8
  %sub.ptr.lhs.cast.i.i = ptrtoint ptr %0 to i64
  %sub.ptr.rhs.cast.i.i = ptrtoint ptr %1 to i64
  %sub.ptr.sub.i.i = sub i64 %sub.ptr.lhs.cast.i.i, %sub.ptr.rhs.cast.i.i
  %sub.ptr.div.i.i = ashr exact i64 %sub.ptr.sub.i.i, 4
  %cmp5 = icmp eq ptr %0, %1
  br i1 %cmp5, label %return, label %for.body.preheader

for.body.preheader:                               ; preds = %entry
  %umax = tail call i64 @llvm.umax.i64(i64 %sub.ptr.div.i.i, i64 1)
  br label %for.body

for.cond:                                         ; preds = %_ZN4cvc58internal8TypeNodeD2Ev.exit
  %inc = add nuw i64 %i.06, 1
  %cmp = icmp uge i64 %inc, %sub.ptr.div.i.i
  %exitcond = icmp eq i64 %inc, %umax
  br i1 %exitcond, label %return, label %for.body, !llvm.loop !63

for.body:                                         ; preds = %for.body.preheader, %for.cond
  %cmp7 = phi i1 [ %cmp, %for.cond ], [ false, %for.body.preheader ]
  %i.06 = phi i64 [ %inc, %for.cond ], [ 0, %for.body.preheader ]
  call void @_ZNK4cvc58internal16DTypeConstructor10getArgTypeEm(ptr nonnull sret(%"class.cvc5::internal::TypeNode") align 8 %t, ptr noundef nonnull align 8 dereferenceable(264) %this, i64 noundef %i.06)
  %call2 = invoke noundef zeroext i1 @_ZNK4cvc58internal8TypeNode10isDatatypeEv(ptr noundef nonnull align 8 dereferenceable(8) %t)
          to label %invoke.cont unwind label %lpad

invoke.cont:                                      ; preds = %for.body
  br i1 %call2, label %if.then, label %if.end8

if.then:                                          ; preds = %invoke.cont
  %call4 = invoke noundef nonnull align 8 dereferenceable(448) ptr @_ZNK4cvc58internal8TypeNode8getDTypeEv(ptr noundef nonnull align 8 dereferenceable(8) %t)
          to label %invoke.cont3 unwind label %lpad

invoke.cont3:                                     ; preds = %if.then
  %call6 = invoke noundef zeroext i1 @_ZNK4cvc58internal5DType18computeWellFoundedERSt6vectorINS0_8TypeNodeESaIS3_EE(ptr noundef nonnull align 8 dereferenceable(448) %call4, ptr noundef nonnull align 8 dereferenceable(24) %processing)
          to label %invoke.cont5 unwind label %lpad

invoke.cont5:                                     ; preds = %invoke.cont3
  br i1 %call6, label %if.end8, label %cleanup

lpad:                                             ; preds = %invoke.cont3, %if.then, %for.body
  %2 = landingpad { ptr, i32 }
          cleanup
  call void @_ZN4cvc58internal8TypeNodeD2Ev(ptr noundef nonnull align 8 dereferenceable(8) %t) #22
  resume { ptr, i32 } %2

if.end8:                                          ; preds = %invoke.cont5, %invoke.cont
  br label %cleanup

cleanup:                                          ; preds = %invoke.cont5, %if.end8
  %cleanup.dest.slot.0 = phi i1 [ true, %if.end8 ], [ false, %invoke.cont5 ]
  %3 = load ptr, ptr %t, align 8
  %bf.load.i.i = load i64, ptr %3, align 8
  %4 = and i64 %bf.load.i.i, 1152920405095219200
  %cmp.not.i.i = icmp eq i64 %4, 1152920405095219200
  br i1 %cmp.not.i.i, label %_ZN4cvc58internal8TypeNodeD2Ev.exit, label %if.then.i.i

if.then.i.i:                                      ; preds = %cleanup
  %bf.value.i.i = add i64 %bf.load.i.i, 1152920405095219200
  %bf.shl.i.i = and i64 %bf.value.i.i, 1152920405095219200
  %bf.clear7.i.i = and i64 %bf.load.i.i, -1152920405095219201
  %bf.set.i.i = or disjoint i64 %bf.shl.i.i, %bf.clear7.i.i
  store i64 %bf.set.i.i, ptr %3, align 8
  %cmp12.i.i = icmp eq i64 %bf.shl.i.i, 0
  br i1 %cmp12.i.i, label %if.then13.i.i, label %_ZN4cvc58internal8TypeNodeD2Ev.exit

if.then13.i.i:                                    ; preds = %if.then.i.i
  invoke void @_ZN4cvc58internal4expr9NodeValue15markForDeletionEv(ptr noundef nonnull align 8 dereferenceable(16) %3)
          to label %_ZN4cvc58internal8TypeNodeD2Ev.exit unwind label %terminate.lpad.i

terminate.lpad.i:                                 ; preds = %if.then13.i.i
  %5 = landingpad { ptr, i32 }
          catch ptr null
  %6 = extractvalue { ptr, i32 } %5, 0
  call void @__clang_call_terminate(ptr %6) #25
  unreachable

_ZN4cvc58internal8TypeNodeD2Ev.exit:              ; preds = %cleanup, %if.then.i.i, %if.then13.i.i
  br i1 %cleanup.dest.slot.0, label %for.cond, label %return

return:                                           ; preds = %_ZN4cvc58internal8TypeNodeD2Ev.exit, %for.cond, %entry
  %cmp.lcssa = phi i1 [ true, %entry ], [ %cmp, %for.cond ], [ %cmp7, %_ZN4cvc58internal8TypeNodeD2Ev.exit ]
  ret i1 %cmp.lcssa
}